target datalayout = "e-m:e-p270:32:32-p271:32:32-p272:64:64-i64:64-i128:128-f80:128-n8:16:32:64-S128"
target triple = "x86_64-pc-linux-gnu"

%struct.mbedtls_ssl_context = type { ptr, i32, i32, i32, i32, i32, ptr, ptr, ptr, ptr, ptr, ptr, ptr, ptr, ptr, ptr, ptr, ptr, ptr, ptr, ptr, ptr, ptr, ptr, ptr, ptr, ptr, ptr, ptr, ptr, ptr, ptr, ptr, i32, i64, i64, i16, i64, i64, i64, i64, i32, i32, i8, i8, i32, i8, ptr, ptr, ptr, ptr, ptr, ptr, ptr, i32, i64, i64, [8 x i8], i16, ptr, ptr, ptr, i64, i32, i64, [12 x i8], [12 x i8], [32 x i8], i8, i8, ptr, ptr, %union.mbedtls_ssl_user_data_t }
%union.mbedtls_ssl_user_data_t = type { i64 }
%struct.mbedtls_ssl_config = type { i32, i32, i8, i8, i8, i8, i8, i8, i8, i8, i8, i8, i16, i8, i8, i8, ptr, i32, ptr, ptr, ptr, ptr, ptr, ptr, ptr, ptr, ptr, ptr, ptr, ptr, ptr, ptr, ptr, ptr, ptr, ptr, ptr, i64, ptr, ptr, ptr, ptr, ptr, ptr, ptr, ptr, %struct.mbedtls_mpi, %struct.mbedtls_mpi, ptr, i64, ptr, i64, ptr, i32, i32, i32, i32, [8 x i8], i32, i32, %union.mbedtls_ssl_user_data_t, ptr, ptr }
%struct.mbedtls_mpi = type { ptr, i16, i16 }
%struct.mbedtls_ssl_transform = type { i64, i64, i64, i64, i64, [16 x i8], [16 x i8], %struct.mbedtls_md_context_t, %struct.mbedtls_md_context_t, i32, i32, %struct.mbedtls_cipher_context_t, %struct.mbedtls_cipher_context_t, i8, i8, [32 x i8], [32 x i8], [64 x i8] }
%struct.mbedtls_md_context_t = type { ptr, ptr, ptr }
%struct.mbedtls_cipher_context_t = type { ptr, i32, i32, ptr, ptr, [16 x i8], i64, [16 x i8], i64, ptr, ptr }

@.str = private unnamed_addr constant [121 x i8] c"generated/home/dtcxzyw/WorkSpace/Projects/compilers/llvm-opt-benchmark/bench/lief/bench_build/mbed_src/library/ssl_msg.c\00", align 1
@.str.47 = private unnamed_addr constant [36 x i8] c"Bad usage of mbedtls_ssl_set_bio() \00", align 1
@.str.60 = private unnamed_addr constant [16 x i8] c"=> flush output\00", align 1
@.str.61 = private unnamed_addr constant [16 x i8] c"<= flush output\00", align 1
@.str.62 = private unnamed_addr constant [35 x i8] c"message length: %zu, out_left: %zu\00", align 1
@.str.63 = private unnamed_addr constant [12 x i8] c"ssl->f_send\00", align 1
@.str.64 = private unnamed_addr constant [54 x i8] c"f_send returned %d bytes but only %zu bytes were sent\00", align 1

; Function Attrs: nounwind uwtable
define internal i64 @ssl_transform_get_explicit_iv_len(ptr noundef %0) #0 {
  %2 = alloca ptr, align 8
  store ptr %0, ptr %2, align 8, !tbaa !50
  %3 = load ptr, ptr %2, align 8, !tbaa !50
  %4 = getelementptr inbounds nuw %struct.mbedtls_ssl_transform, ptr %3, i32 0, i32 1
  %5 = load i64, ptr %4, align 8, !tbaa !61
  %6 = load ptr, ptr %2, align 8, !tbaa !50
  %7 = getelementptr inbounds nuw %struct.mbedtls_ssl_transform, ptr %6, i32 0, i32 2
  %8 = load i64, ptr %7, align 8, !tbaa !59
  %9 = sub i64 %5, %8
  ret i64 %9
}

; Function Attrs: nounwind uwtable
define hidden void @mbedtls_ssl_update_out_pointers(ptr noundef %0, ptr noundef %1) #0 {
  %3 = alloca ptr, align 8
  %4 = alloca ptr, align 8
  store ptr %0, ptr %3, align 8, !tbaa !3
  store ptr %1, ptr %4, align 8, !tbaa !50
  %5 = load ptr, ptr %3, align 8, !tbaa !3
  %6 = getelementptr inbounds nuw %struct.mbedtls_ssl_context, ptr %5, i32 0, i32 0
  %7 = load ptr, ptr %6, align 8, !tbaa !23
  %8 = getelementptr inbounds nuw %struct.mbedtls_ssl_config, ptr %7, i32 0, i32 3
  %9 = load i8, ptr %8, align 1, !tbaa !24
  %10 = zext i8 %9 to i32
  %11 = icmp eq i32 %10, 1
  br i1 %11, label %12, label %49

12:                                               ; preds = %2
  %13 = load ptr, ptr %3, align 8, !tbaa !3
  %14 = getelementptr inbounds nuw %struct.mbedtls_ssl_context, ptr %13, i32 0, i32 49
  %15 = load ptr, ptr %14, align 8, !tbaa !103
  %16 = getelementptr inbounds i8, ptr %15, i64 3
  %17 = load ptr, ptr %3, align 8, !tbaa !3
  %18 = getelementptr inbounds nuw %struct.mbedtls_ssl_context, ptr %17, i32 0, i32 48
  store ptr %16, ptr %18, align 8, !tbaa !108
  %19 = load ptr, ptr %3, align 8, !tbaa !3
  %20 = getelementptr inbounds nuw %struct.mbedtls_ssl_context, ptr %19, i32 0, i32 48
  %21 = load ptr, ptr %20, align 8, !tbaa !108
  %22 = getelementptr inbounds i8, ptr %21, i64 8
  %23 = load ptr, ptr %3, align 8, !tbaa !3
  %24 = getelementptr inbounds nuw %struct.mbedtls_ssl_context, ptr %23, i32 0, i32 50
  store ptr %22, ptr %24, align 8, !tbaa !109
  %25 = load ptr, ptr %3, align 8, !tbaa !3
  %26 = getelementptr inbounds nuw %struct.mbedtls_ssl_context, ptr %25, i32 0, i32 50
  %27 = load ptr, ptr %26, align 8, !tbaa !109
  %28 = load ptr, ptr %3, align 8, !tbaa !3
  %29 = getelementptr inbounds nuw %struct.mbedtls_ssl_context, ptr %28, i32 0, i32 51
  store ptr %27, ptr %29, align 8, !tbaa !110
  %30 = load ptr, ptr %4, align 8, !tbaa !50
  %31 = icmp ne ptr %30, null
  br i1 %31, label %32, label %42

32:                                               ; preds = %12
  %33 = load ptr, ptr %4, align 8, !tbaa !50
  %34 = getelementptr inbounds nuw %struct.mbedtls_ssl_transform, ptr %33, i32 0, i32 14
  %35 = load i8, ptr %34, align 1, !tbaa !65
  %36 = zext i8 %35 to i32
  %37 = load ptr, ptr %3, align 8, !tbaa !3
  %38 = getelementptr inbounds nuw %struct.mbedtls_ssl_context, ptr %37, i32 0, i32 51
  %39 = load ptr, ptr %38, align 8, !tbaa !110
  %40 = sext i32 %36 to i64
  %41 = getelementptr inbounds i8, ptr %39, i64 %40
  store ptr %41, ptr %38, align 8, !tbaa !110
  br label %42

42:                                               ; preds = %32, %12
  %43 = load ptr, ptr %3, align 8, !tbaa !3
  %44 = getelementptr inbounds nuw %struct.mbedtls_ssl_context, ptr %43, i32 0, i32 51
  %45 = load ptr, ptr %44, align 8, !tbaa !110
  %46 = getelementptr inbounds i8, ptr %45, i64 2
  %47 = load ptr, ptr %3, align 8, !tbaa !3
  %48 = getelementptr inbounds nuw %struct.mbedtls_ssl_context, ptr %47, i32 0, i32 52
  store ptr %46, ptr %48, align 8, !tbaa !107
  br label %67

49:                                               ; preds = %2
  %50 = load ptr, ptr %3, align 8, !tbaa !3
  %51 = getelementptr inbounds nuw %struct.mbedtls_ssl_context, ptr %50, i32 0, i32 49
  %52 = load ptr, ptr %51, align 8, !tbaa !103
  %53 = getelementptr inbounds i8, ptr %52, i64 3
  %54 = load ptr, ptr %3, align 8, !tbaa !3
  %55 = getelementptr inbounds nuw %struct.mbedtls_ssl_context, ptr %54, i32 0, i32 51
  store ptr %53, ptr %55, align 8, !tbaa !110
  %56 = load ptr, ptr %3, align 8, !tbaa !3
  %57 = getelementptr inbounds nuw %struct.mbedtls_ssl_context, ptr %56, i32 0, i32 51
  %58 = load ptr, ptr %57, align 8, !tbaa !110
  %59 = load ptr, ptr %3, align 8, !tbaa !3
  %60 = getelementptr inbounds nuw %struct.mbedtls_ssl_context, ptr %59, i32 0, i32 50
  store ptr %58, ptr %60, align 8, !tbaa !109
  %61 = load ptr, ptr %3, align 8, !tbaa !3
  %62 = getelementptr inbounds nuw %struct.mbedtls_ssl_context, ptr %61, i32 0, i32 49
  %63 = load ptr, ptr %62, align 8, !tbaa !103
  %64 = getelementptr inbounds i8, ptr %63, i64 5
  %65 = load ptr, ptr %3, align 8, !tbaa !3
  %66 = getelementptr inbounds nuw %struct.mbedtls_ssl_context, ptr %65, i32 0, i32 52
  store ptr %64, ptr %66, align 8, !tbaa !107
  br label %67

67:                                               ; preds = %49, %42
  %68 = load ptr, ptr %3, align 8, !tbaa !3
  %69 = getelementptr inbounds nuw %struct.mbedtls_ssl_context, ptr %68, i32 0, i32 52
  %70 = load ptr, ptr %69, align 8, !tbaa !107
  %71 = load ptr, ptr %3, align 8, !tbaa !3
  %72 = getelementptr inbounds nuw %struct.mbedtls_ssl_context, ptr %71, i32 0, i32 53
  store ptr %70, ptr %72, align 8, !tbaa !111
  %73 = load ptr, ptr %4, align 8, !tbaa !50
  %74 = icmp ne ptr %73, null
  br i1 %74, label %75, label %82

75:                                               ; preds = %67
  %76 = load ptr, ptr %4, align 8, !tbaa !50
  %77 = call i64 @ssl_transform_get_explicit_iv_len(ptr noundef %76)
  %78 = load ptr, ptr %3, align 8, !tbaa !3
  %79 = getelementptr inbounds nuw %struct.mbedtls_ssl_context, ptr %78, i32 0, i32 53
  %80 = load ptr, ptr %79, align 8, !tbaa !111
  %81 = getelementptr inbounds nuw i8, ptr %80, i64 %77
  store ptr %81, ptr %79, align 8, !tbaa !111
  br label %82

82:                                               ; preds = %75, %67
  ret void
}

; Function Attrs: inlinehint nounwind uwtable
define internal i64 @mbedtls_ssl_out_hdr_len(ptr noundef %0) #4 {
  %2 = alloca ptr, align 8
  store ptr %0, ptr %2, align 8, !tbaa !3
  %3 = load ptr, ptr %2, align 8, !tbaa !3
  %4 = getelementptr inbounds nuw %struct.mbedtls_ssl_context, ptr %3, i32 0, i32 52
  %5 = load ptr, ptr %4, align 8, !tbaa !107
  %6 = load ptr, ptr %2, align 8, !tbaa !3
  %7 = getelementptr inbounds nuw %struct.mbedtls_ssl_context, ptr %6, i32 0, i32 49
  %8 = load ptr, ptr %7, align 8, !tbaa !103
  %9 = ptrtoint ptr %5 to i64
  %10 = ptrtoint ptr %8 to i64
  %11 = sub i64 %9, %10
  ret i64 %11
}

; Function Attrs: nounwind uwtable
define hidden i32 @mbedtls_ssl_flush_output(ptr noundef %0) #0 {
  %2 = alloca i32, align 4
  %3 = alloca ptr, align 8
  %4 = alloca i32, align 4
  %5 = alloca ptr, align 8
  %6 = alloca i32, align 4
  store ptr %0, ptr %3, align 8, !tbaa !3
  call void @llvm.lifetime.start.p0(i64 4, ptr %4) #11
  store i32 -110, ptr %4, align 4, !tbaa !8
  call void @llvm.lifetime.start.p0(i64 8, ptr %5) #11
  %7 = load ptr, ptr %3, align 8, !tbaa !3
  call void (ptr, i32, ptr, i32, ptr, ...) @mbedtls_debug_print_msg(ptr noundef %7, i32 noundef 2, ptr noundef @.str, i32 noundef 2353, ptr noundef @.str.60)
  %8 = load ptr, ptr %3, align 8, !tbaa !3
  %9 = getelementptr inbounds nuw %struct.mbedtls_ssl_context, ptr %8, i32 0, i32 8
  %10 = load ptr, ptr %9, align 8, !tbaa !100
  %11 = icmp eq ptr %10, null
  br i1 %11, label %12, label %14

12:                                               ; preds = %1
  %13 = load ptr, ptr %3, align 8, !tbaa !3
  call void (ptr, i32, ptr, i32, ptr, ...) @mbedtls_debug_print_msg(ptr noundef %13, i32 noundef 1, ptr noundef @.str, i32 noundef 2356, ptr noundef @.str.47)
  store i32 -28928, ptr %2, align 4
  store i32 1, ptr %6, align 4
  br label %110

14:                                               ; preds = %1
  %15 = load ptr, ptr %3, align 8, !tbaa !3
  %16 = getelementptr inbounds nuw %struct.mbedtls_ssl_context, ptr %15, i32 0, i32 56
  %17 = load i64, ptr %16, align 8, !tbaa !101
  %18 = icmp eq i64 %17, 0
  br i1 %18, label %19, label %21

19:                                               ; preds = %14
  %20 = load ptr, ptr %3, align 8, !tbaa !3
  call void (ptr, i32, ptr, i32, ptr, ...) @mbedtls_debug_print_msg(ptr noundef %20, i32 noundef 2, ptr noundef @.str, i32 noundef 2362, ptr noundef @.str.61)
  store i32 0, ptr %2, align 4
  store i32 1, ptr %6, align 4
  br label %110

21:                                               ; preds = %14
  br label %22

22:                                               ; preds = %76, %21
  %23 = load ptr, ptr %3, align 8, !tbaa !3
  %24 = getelementptr inbounds nuw %struct.mbedtls_ssl_context, ptr %23, i32 0, i32 56
  %25 = load i64, ptr %24, align 8, !tbaa !101
  %26 = icmp ugt i64 %25, 0
  br i1 %26, label %27, label %83

27:                                               ; preds = %22
  %28 = load ptr, ptr %3, align 8, !tbaa !3
  %29 = load ptr, ptr %3, align 8, !tbaa !3
  %30 = call i64 @mbedtls_ssl_out_hdr_len(ptr noundef %29)
  %31 = load ptr, ptr %3, align 8, !tbaa !3
  %32 = getelementptr inbounds nuw %struct.mbedtls_ssl_context, ptr %31, i32 0, i32 55
  %33 = load i64, ptr %32, align 8, !tbaa !102
  %34 = add i64 %30, %33
  %35 = load ptr, ptr %3, align 8, !tbaa !3
  %36 = getelementptr inbounds nuw %struct.mbedtls_ssl_context, ptr %35, i32 0, i32 56
  %37 = load i64, ptr %36, align 8, !tbaa !101
  call void (ptr, i32, ptr, i32, ptr, ...) @mbedtls_debug_print_msg(ptr noundef %28, i32 noundef 2, ptr noundef @.str, i32 noundef 2369, ptr noundef @.str.62, i64 noundef %34, i64 noundef %37)
  %38 = load ptr, ptr %3, align 8, !tbaa !3
  %39 = getelementptr inbounds nuw %struct.mbedtls_ssl_context, ptr %38, i32 0, i32 49
  %40 = load ptr, ptr %39, align 8, !tbaa !103
  %41 = load ptr, ptr %3, align 8, !tbaa !3
  %42 = getelementptr inbounds nuw %struct.mbedtls_ssl_context, ptr %41, i32 0, i32 56
  %43 = load i64, ptr %42, align 8, !tbaa !101
  %44 = sub i64 0, %43
  %45 = getelementptr inbounds i8, ptr %40, i64 %44
  store ptr %45, ptr %5, align 8, !tbaa !21
  %46 = load ptr, ptr %3, align 8, !tbaa !3
  %47 = getelementptr inbounds nuw %struct.mbedtls_ssl_context, ptr %46, i32 0, i32 8
  %48 = load ptr, ptr %47, align 8, !tbaa !100
  %49 = load ptr, ptr %3, align 8, !tbaa !3
  %50 = getelementptr inbounds nuw %struct.mbedtls_ssl_context, ptr %49, i32 0, i32 11
  %51 = load ptr, ptr %50, align 8, !tbaa !92
  %52 = load ptr, ptr %5, align 8, !tbaa !21
  %53 = load ptr, ptr %3, align 8, !tbaa !3
  %54 = getelementptr inbounds nuw %struct.mbedtls_ssl_context, ptr %53, i32 0, i32 56
  %55 = load i64, ptr %54, align 8, !tbaa !101
  %56 = call i32 %48(ptr noundef %51, ptr noundef %52, i64 noundef %55)
  store i32 %56, ptr %4, align 4, !tbaa !8
  %57 = load ptr, ptr %3, align 8, !tbaa !3
  %58 = load i32, ptr %4, align 4, !tbaa !8
  call void @mbedtls_debug_print_ret(ptr noundef %57, i32 noundef 2, ptr noundef @.str, i32 noundef 2374, ptr noundef @.str.63, i32 noundef %58)
  %59 = load i32, ptr %4, align 4, !tbaa !8
  %60 = icmp sle i32 %59, 0
  br i1 %60, label %61, label %63

61:                                               ; preds = %27
  %62 = load i32, ptr %4, align 4, !tbaa !8
  store i32 %62, ptr %2, align 4
  store i32 1, ptr %6, align 4
  br label %110

63:                                               ; preds = %27
  %64 = load i32, ptr %4, align 4, !tbaa !8
  %65 = sext i32 %64 to i64
  %66 = load ptr, ptr %3, align 8, !tbaa !3
  %67 = getelementptr inbounds nuw %struct.mbedtls_ssl_context, ptr %66, i32 0, i32 56
  %68 = load i64, ptr %67, align 8, !tbaa !101
  %69 = icmp ugt i64 %65, %68
  br i1 %69, label %70, label %76

70:                                               ; preds = %63
  %71 = load ptr, ptr %3, align 8, !tbaa !3
  %72 = load i32, ptr %4, align 4, !tbaa !8
  %73 = load ptr, ptr %3, align 8, !tbaa !3
  %74 = getelementptr inbounds nuw %struct.mbedtls_ssl_context, ptr %73, i32 0, i32 56
  %75 = load i64, ptr %74, align 8, !tbaa !101
  call void (ptr, i32, ptr, i32, ptr, ...) @mbedtls_debug_print_msg(ptr noundef %71, i32 noundef 1, ptr noundef @.str, i32 noundef 2384, ptr noundef @.str.64, i32 noundef %72, i64 noundef %75)
  store i32 -27648, ptr %2, align 4
  store i32 1, ptr %6, align 4
  br label %110

76:                                               ; preds = %63
  %77 = load i32, ptr %4, align 4, !tbaa !8
  %78 = sext i32 %77 to i64
  %79 = load ptr, ptr %3, align 8, !tbaa !3
  %80 = getelementptr inbounds nuw %struct.mbedtls_ssl_context, ptr %79, i32 0, i32 56
  %81 = load i64, ptr %80, align 8, !tbaa !101
  %82 = sub i64 %81, %78
  store i64 %82, ptr %80, align 8, !tbaa !101
  br label %22, !llvm.loop !104

83:                                               ; preds = %22
  %84 = load ptr, ptr %3, align 8, !tbaa !3
  %85 = getelementptr inbounds nuw %struct.mbedtls_ssl_context, ptr %84, i32 0, i32 0
  %86 = load ptr, ptr %85, align 8, !tbaa !23
  %87 = getelementptr inbounds nuw %struct.mbedtls_ssl_config, ptr %86, i32 0, i32 3
  %88 = load i8, ptr %87, align 1, !tbaa !24
  %89 = zext i8 %88 to i32
  %90 = icmp eq i32 %89, 1
  br i1 %90, label %91, label %97

91:                                               ; preds = %83
  %92 = load ptr, ptr %3, align 8, !tbaa !3
  %93 = getelementptr inbounds nuw %struct.mbedtls_ssl_context, ptr %92, i32 0, i32 47
  %94 = load ptr, ptr %93, align 8, !tbaa !105
  %95 = load ptr, ptr %3, align 8, !tbaa !3
  %96 = getelementptr inbounds nuw %struct.mbedtls_ssl_context, ptr %95, i32 0, i32 49
  store ptr %94, ptr %96, align 8, !tbaa !103
  br label %104

97:                                               ; preds = %83
  %98 = load ptr, ptr %3, align 8, !tbaa !3
  %99 = getelementptr inbounds nuw %struct.mbedtls_ssl_context, ptr %98, i32 0, i32 47
  %100 = load ptr, ptr %99, align 8, !tbaa !105
  %101 = getelementptr inbounds i8, ptr %100, i64 8
  %102 = load ptr, ptr %3, align 8, !tbaa !3
  %103 = getelementptr inbounds nuw %struct.mbedtls_ssl_context, ptr %102, i32 0, i32 49
  store ptr %101, ptr %103, align 8, !tbaa !103
  br label %104

104:                                              ; preds = %97, %91
  %105 = load ptr, ptr %3, align 8, !tbaa !3
  %106 = load ptr, ptr %3, align 8, !tbaa !3
  %107 = getelementptr inbounds nuw %struct.mbedtls_ssl_context, ptr %106, i32 0, i32 18
  %108 = load ptr, ptr %107, align 8, !tbaa !106
  call void @mbedtls_ssl_update_out_pointers(ptr noundef %105, ptr noundef %108)
  %109 = load ptr, ptr %3, align 8, !tbaa !3
  call void (ptr, i32, ptr, i32, ptr, ...) @mbedtls_debug_print_msg(ptr noundef %109, i32 noundef 2, ptr noundef @.str, i32 noundef 2401, ptr noundef @.str.61)
  store i32 0, ptr %2, align 4
  store i32 1, ptr %6, align 4
  br label %110

110:                                              ; preds = %104, %70, %61, %19, %12
  call void @llvm.lifetime.end.p0(i64 8, ptr %5) #11
  call void @llvm.lifetime.end.p0(i64 4, ptr %4) #11
  %111 = load i32, ptr %2, align 4
  ret i32 %111
}