; Function Attrs: nounwind uwtable
define hidden range(i32 -2147483648, 1) i32 @mbedtls_ssl_flush_output(ptr noundef %0) local_unnamed_addr #0 {
  tail call void (ptr, i32, ptr, i32, ptr, ...) @mbedtls_debug_print_msg(ptr noundef %0, i32 noundef 2, ptr noundef nonnull @.str, i32 noundef 2353, ptr noundef nonnull @.str.60) #19
  %2 = getelementptr inbounds nuw i8, ptr %0, i64 48
  %3 = load ptr, ptr %2, align 8, !tbaa !94
  %4 = icmp eq ptr %3, null
  br i1 %4, label %5, label %6

5:                                                ; preds = %1
  tail call void (ptr, i32, ptr, i32, ptr, ...) @mbedtls_debug_print_msg(ptr noundef nonnull %0, i32 noundef 1, ptr noundef nonnull @.str, i32 noundef 2356, ptr noundef nonnull @.str.47) #19
  br label %.loopexit

6:                                                ; preds = %1
  %7 = getelementptr inbounds nuw i8, ptr %0, i64 408
  %8 = load i64, ptr %7, align 8, !tbaa !95
  %9 = icmp eq i64 %8, 0
  br i1 %9, label %14, label %.preheader

.preheader:                                       ; preds = %6
  %10 = getelementptr i8, ptr %0, i64 352
  %11 = getelementptr i8, ptr %0, i64 376
  %12 = getelementptr inbounds nuw i8, ptr %0, i64 400
  %13 = getelementptr inbounds nuw i8, ptr %0, i64 72
  br label %15

14:                                               ; preds = %6
  tail call void (ptr, i32, ptr, i32, ptr, ...) @mbedtls_debug_print_msg(ptr noundef nonnull %0, i32 noundef 2, ptr noundef nonnull @.str, i32 noundef 2362, ptr noundef nonnull @.str.61) #19
  br label %.loopexit

15:                                               ; preds = %.preheader, %35
  %16 = phi i64 [ %8, %.preheader ], [ %36, %35 ]
  %.val = load ptr, ptr %10, align 8, !tbaa !96
  %.val39 = load ptr, ptr %11, align 8, !tbaa !97
  %17 = ptrtoint ptr %.val39 to i64
  %18 = ptrtoint ptr %.val to i64
  %19 = sub i64 %17, %18
  %20 = load i64, ptr %12, align 8, !tbaa !98
  %21 = add i64 %19, %20
  tail call void (ptr, i32, ptr, i32, ptr, ...) @mbedtls_debug_print_msg(ptr noundef nonnull %0, i32 noundef 2, ptr noundef nonnull @.str, i32 noundef 2369, ptr noundef nonnull @.str.62, i64 noundef %21, i64 noundef %16) #19
  %22 = load ptr, ptr %10, align 8, !tbaa !96
  %23 = load i64, ptr %7, align 8, !tbaa !95
  %24 = sub i64 0, %23
  %25 = getelementptr inbounds i8, ptr %22, i64 %24
  %26 = load ptr, ptr %2, align 8, !tbaa !94
  %27 = load ptr, ptr %13, align 8, !tbaa !77
  %28 = tail call i32 %26(ptr noundef %27, ptr noundef %25, i64 noundef %23) #19
  tail call void @mbedtls_debug_print_ret(ptr noundef nonnull %0, i32 noundef 2, ptr noundef nonnull @.str, i32 noundef 2374, ptr noundef nonnull @.str.63, i32 noundef %28) #19
  %29 = icmp slt i32 %28, 1
  br i1 %29, label %.loopexit, label %30

30:                                               ; preds = %15
  %31 = zext nneg i32 %28 to i64
  %32 = load i64, ptr %7, align 8, !tbaa !95
  %33 = icmp ult i64 %32, %31
  br i1 %33, label %34, label %35

34:                                               ; preds = %30
  tail call void (ptr, i32, ptr, i32, ptr, ...) @mbedtls_debug_print_msg(ptr noundef nonnull %0, i32 noundef 1, ptr noundef nonnull @.str, i32 noundef 2384, ptr noundef nonnull @.str.64, i32 noundef %28, i64 noundef %32) #19
  br label %.loopexit

35:                                               ; preds = %30
  %36 = sub nuw i64 %32, %31
  store i64 %36, ptr %7, align 8, !tbaa !95
  %.not = icmp eq i64 %36, 0
  br i1 %.not, label %37, label %15, !llvm.loop !99

37:                                               ; preds = %35
  %38 = load ptr, ptr %0, align 8, !tbaa !18
  %39 = getelementptr inbounds nuw i8, ptr %38, i64 9
  %40 = load i8, ptr %39, align 1, !tbaa !19
  %41 = icmp eq i8 %40, 1
  %42 = getelementptr inbounds nuw i8, ptr %0, i64 336
  %43 = load ptr, ptr %42, align 8, !tbaa !100
  %44 = getelementptr inbounds nuw i8, ptr %0, i64 360
  br i1 %41, label %45, label %60

45:                                               ; preds = %37
  store ptr %43, ptr %10, align 8, !tbaa !96
  %46 = getelementptr inbounds nuw i8, ptr %0, i64 128
  %47 = load ptr, ptr %46, align 8, !tbaa !101
  %48 = getelementptr inbounds nuw i8, ptr %43, i64 3
  %49 = getelementptr inbounds nuw i8, ptr %0, i64 344
  store ptr %48, ptr %49, align 8, !tbaa !102
  %50 = getelementptr inbounds nuw i8, ptr %43, i64 11
  store ptr %50, ptr %44, align 8, !tbaa !103
  %51 = getelementptr inbounds nuw i8, ptr %0, i64 368
  store ptr %50, ptr %51, align 8, !tbaa !104
  %.not.i = icmp eq ptr %47, null
  br i1 %.not.i, label %57, label %52

52:                                               ; preds = %45
  %53 = getelementptr inbounds nuw i8, ptr %47, i64 321
  %54 = load i8, ptr %53, align 1, !tbaa !63
  %55 = zext i8 %54 to i64
  %56 = getelementptr inbounds nuw i8, ptr %50, i64 %55
  store ptr %56, ptr %51, align 8, !tbaa !104
  br label %57

57:                                               ; preds = %52, %45
  %58 = phi ptr [ %56, %52 ], [ %50, %45 ]
  %59 = getelementptr inbounds nuw i8, ptr %58, i64 2
  br label %67

60:                                               ; preds = %37
  %61 = getelementptr inbounds nuw i8, ptr %43, i64 8
  store ptr %61, ptr %10, align 8, !tbaa !96
  %62 = getelementptr inbounds nuw i8, ptr %0, i64 128
  %63 = load ptr, ptr %62, align 8, !tbaa !101
  %64 = getelementptr inbounds nuw i8, ptr %43, i64 11
  %65 = getelementptr inbounds nuw i8, ptr %0, i64 368
  store ptr %64, ptr %65, align 8, !tbaa !104
  store ptr %64, ptr %44, align 8, !tbaa !103
  %66 = getelementptr inbounds nuw i8, ptr %43, i64 13
  br label %67

67:                                               ; preds = %60, %57
  %68 = phi ptr [ %63, %60 ], [ %47, %57 ]
  %.sink.i = phi ptr [ %66, %60 ], [ %59, %57 ]
  store ptr %.sink.i, ptr %11, align 8, !tbaa !97
  %69 = getelementptr inbounds nuw i8, ptr %0, i64 384
  store ptr %.sink.i, ptr %69, align 8, !tbaa !105
  %.not23.i = icmp eq ptr %68, null
  br i1 %.not23.i, label %mbedtls_ssl_update_out_pointers.exit, label %70

70:                                               ; preds = %67
  %71 = getelementptr i8, ptr %68, i64 8
  %.val.i = load i64, ptr %71, align 8, !tbaa !52
  %72 = getelementptr i8, ptr %68, i64 16
  %.val24.i = load i64, ptr %72, align 8, !tbaa !53
  %73 = sub i64 %.val.i, %.val24.i
  %74 = getelementptr inbounds nuw i8, ptr %.sink.i, i64 %73
  store ptr %74, ptr %69, align 8, !tbaa !105
  br label %mbedtls_ssl_update_out_pointers.exit

mbedtls_ssl_update_out_pointers.exit:             ; preds = %67, %70
  tail call void (ptr, i32, ptr, i32, ptr, ...) @mbedtls_debug_print_msg(ptr noundef nonnull %0, i32 noundef 2, ptr noundef nonnull @.str, i32 noundef 2401, ptr noundef nonnull @.str.61) #19
  br label %.loopexit

.loopexit:                                        ; preds = %15, %mbedtls_ssl_update_out_pointers.exit, %34, %14, %5
  %.0 = phi i32 [ -28928, %5 ], [ 0, %14 ], [ -27648, %34 ], [ 0, %mbedtls_ssl_update_out_pointers.exit ], [ %28, %15 ]
  ret i32 %.0
}